
drawGlcd_readKeys:

;keys.h,16 :: 		static inline Keys readKeys()
	MOVF        R0, 0 
	MOVWF       R2 
	MOVF        R1, 0 
	MOVWF       R3 
;keys.h,51 :: 		tmp.up    = PORTA.B2 == 1;
	CLRF        R1 
	BTFSC       PORTA+0, 2 
	INCF        R1, 1 
	MOVF        R1, 0 
	XORLW       1
	MOVLW       1
	BTFSS       STATUS+0, 2 
	MOVLW       0
	MOVWF       R0 
	MOVF        R0, 0 
	MOVWF       R4 
;keys.h,52 :: 		tmp.down  = PORTA.B3 == 1;
	CLRF        R1 
	BTFSC       PORTA+0, 3 
	INCF        R1, 1 
	MOVF        R1, 0 
	XORLW       1
	MOVLW       1
	BTFSS       STATUS+0, 2 
	MOVLW       0
	MOVWF       R0 
	MOVF        R0, 0 
	MOVWF       R5 
;keys.h,53 :: 		tmp.enter = PORTA.B4 == 1;
	CLRF        R1 
	BTFSC       PORTA+0, 4 
	INCF        R1, 1 
	MOVF        R1, 0 
	XORLW       1
	MOVLW       1
	BTFSS       STATUS+0, 2 
	MOVLW       0
	MOVWF       R0 
	MOVF        R0, 0 
	MOVWF       R6 
;keys.h,54 :: 		return tmp;
	MOVLW       3
	MOVWF       R0 
	MOVF        R2, 0 
	MOVWF       FSR1L+0 
	MOVF        R3, 0 
	MOVWF       FSR1L+1 
	MOVLW       4
	MOVWF       FSR0L+0 
	MOVLW       0
	MOVWF       FSR0L+1 
L_drawGlcd_readKeys0:
	MOVF        POSTINC0+0, 0 
	MOVWF       POSTINC1+0 
	DECF        R0, 1 
	BTFSS       STATUS+0, 2 
	GOTO        L_drawGlcd_readKeys0
;keys.h,56 :: 		}
L_end_readKeys:
	RETURN      0
; end of drawGlcd_readKeys

_draw_clear:

;drawGlcd.c,4 :: 		void draw_clear()
;drawGlcd.c,6 :: 		Glcd_Fill(0x00);
	CLRF        FARG_Glcd_Fill_pattern+0 
	CALL        _Glcd_Fill+0, 0
;drawGlcd.c,7 :: 		}
L_end_draw_clear:
	RETURN      0
; end of _draw_clear

_draw_InitFrame:

;drawGlcd.c,10 :: 		void draw_InitFrame(){
;drawGlcd.c,11 :: 		Glcd_Image(titleFrame);
	MOVLW       _titleFrame+0
	MOVWF       FARG_Glcd_Image_image+0 
	MOVLW       hi_addr(_titleFrame+0)
	MOVWF       FARG_Glcd_Image_image+1 
	MOVLW       higher_addr(_titleFrame+0)
	MOVWF       FARG_Glcd_Image_image+2 
	CALL        _Glcd_Image+0, 0
;drawGlcd.c,12 :: 		Delay_ms(4000);
	MOVLW       41
	MOVWF       R11, 0
	MOVLW       150
	MOVWF       R12, 0
	MOVLW       127
	MOVWF       R13, 0
L_draw_InitFrame1:
	DECFSZ      R13, 1, 1
	BRA         L_draw_InitFrame1
	DECFSZ      R12, 1, 1
	BRA         L_draw_InitFrame1
	DECFSZ      R11, 1, 1
	BRA         L_draw_InitFrame1
;drawGlcd.c,13 :: 		draw_clear();
	CALL        _draw_clear+0, 0
;drawGlcd.c,14 :: 		}
L_end_draw_InitFrame:
	RETURN      0
; end of _draw_InitFrame

_draw_MenuFrame:

;drawGlcd.c,16 :: 		void draw_MenuFrame(){
;drawGlcd.c,17 :: 		Glcd_Image(menuFrame);
	MOVLW       _menuFrame+0
	MOVWF       FARG_Glcd_Image_image+0 
	MOVLW       hi_addr(_menuFrame+0)
	MOVWF       FARG_Glcd_Image_image+1 
	MOVLW       higher_addr(_menuFrame+0)
	MOVWF       FARG_Glcd_Image_image+2 
	CALL        _Glcd_Image+0, 0
;drawGlcd.c,18 :: 		}
L_end_draw_MenuFrame:
	RETURN      0
; end of _draw_MenuFrame

_draw_circle:

;drawGlcd.c,21 :: 		void draw_circle(Rect circle, uint8_t color)
;drawGlcd.c,24 :: 		Glcd_Circle(circle.x, circle.y, circle.w, color);
	MOVF        FARG_draw_circle_circle+0, 0 
	MOVWF       FARG_Glcd_Circle_x_center+0 
	MOVLW       0
	BTFSC       FARG_draw_circle_circle+0, 7 
	MOVLW       255
	MOVWF       FARG_Glcd_Circle_x_center+1 
	MOVF        FARG_draw_circle_circle+1, 0 
	MOVWF       FARG_Glcd_Circle_y_center+0 
	MOVLW       0
	BTFSC       FARG_draw_circle_circle+1, 7 
	MOVLW       255
	MOVWF       FARG_Glcd_Circle_y_center+1 
	MOVF        FARG_draw_circle_circle+2, 0 
	MOVWF       FARG_Glcd_Circle_radius+0 
	MOVLW       0
	BTFSC       FARG_draw_circle_circle+2, 7 
	MOVLW       255
	MOVWF       FARG_Glcd_Circle_radius+1 
	MOVF        FARG_draw_circle_color+0, 0 
	MOVWF       FARG_Glcd_Circle_color+0 
	CALL        _Glcd_Circle+0, 0
;drawGlcd.c,25 :: 		}
L_end_draw_circle:
	RETURN      0
; end of _draw_circle

_draw_MenuGame:

;drawGlcd.c,30 :: 		int draw_MenuGame(uint8_t modeGame)
;drawGlcd.c,34 :: 		Rect select = {25, 34, 3, 0};
	MOVLW       25
	MOVWF       draw_MenuGame_select_L0+0 
	MOVLW       34
	MOVWF       draw_MenuGame_select_L0+1 
	MOVLW       3
	MOVWF       draw_MenuGame_select_L0+2 
	CLRF        draw_MenuGame_select_L0+3 
;drawGlcd.c,35 :: 		draw_MenuFrame();
	CALL        _draw_MenuFrame+0, 0
;drawGlcd.c,36 :: 		draw_circle(select, 1);
	MOVLW       4
	MOVWF       R0 
	MOVLW       FARG_draw_circle_circle+0
	MOVWF       FSR1L+0 
	MOVLW       hi_addr(FARG_draw_circle_circle+0)
	MOVWF       FSR1L+1 
	MOVLW       draw_MenuGame_select_L0+0
	MOVWF       FSR0L+0 
	MOVLW       hi_addr(draw_MenuGame_select_L0+0)
	MOVWF       FSR0L+1 
L_draw_MenuGame2:
	MOVF        POSTINC0+0, 0 
	MOVWF       POSTINC1+0 
	DECF        R0, 1 
	BTFSS       STATUS+0, 2 
	GOTO        L_draw_MenuGame2
	MOVLW       1
	MOVWF       FARG_draw_circle_color+0 
	CALL        _draw_circle+0, 0
;drawGlcd.c,38 :: 		while (1)
L_draw_MenuGame3:
;drawGlcd.c,40 :: 		key = readKeys();
	MOVLW       FLOC__draw_MenuGame+0
	MOVWF       R0 
	MOVLW       hi_addr(FLOC__draw_MenuGame+0)
	MOVWF       R1 
	CALL        drawGlcd_readKeys+0, 0
	MOVLW       3
	MOVWF       R0 
	MOVLW       draw_MenuGame_key_L0+0
	MOVWF       FSR1L+0 
	MOVLW       hi_addr(draw_MenuGame_key_L0+0)
	MOVWF       FSR1L+1 
	MOVLW       FLOC__draw_MenuGame+0
	MOVWF       FSR0L+0 
	MOVLW       hi_addr(FLOC__draw_MenuGame+0)
	MOVWF       FSR0L+1 
L_draw_MenuGame5:
	MOVF        POSTINC0+0, 0 
	MOVWF       POSTINC1+0 
	DECF        R0, 1 
	BTFSS       STATUS+0, 2 
	GOTO        L_draw_MenuGame5
;drawGlcd.c,42 :: 		if ((key.enter) && (modeGame == 0))
	MOVF        draw_MenuGame_key_L0+2, 1 
	BTFSC       STATUS+0, 2 
	GOTO        L_draw_MenuGame8
	MOVF        FARG_draw_MenuGame_modeGame+0, 0 
	XORLW       0
	BTFSS       STATUS+0, 2 
	GOTO        L_draw_MenuGame8
L__draw_MenuGame33:
;drawGlcd.c,44 :: 		draw_clear();
	CALL        _draw_clear+0, 0
;drawGlcd.c,45 :: 		return 2;
	MOVLW       2
	MOVWF       R0 
	MOVLW       0
	MOVWF       R1 
	GOTO        L_end_draw_MenuGame
;drawGlcd.c,46 :: 		}
L_draw_MenuGame8:
;drawGlcd.c,47 :: 		if ((key.up || key.down)  && (modeGame == 0))
	MOVF        draw_MenuGame_key_L0+0, 1 
	BTFSS       STATUS+0, 2 
	GOTO        L__draw_MenuGame32
	MOVF        draw_MenuGame_key_L0+1, 1 
	BTFSS       STATUS+0, 2 
	GOTO        L__draw_MenuGame32
	GOTO        L_draw_MenuGame13
L__draw_MenuGame32:
	MOVF        FARG_draw_MenuGame_modeGame+0, 0 
	XORLW       0
	BTFSS       STATUS+0, 2 
	GOTO        L_draw_MenuGame13
L__draw_MenuGame31:
;drawGlcd.c,49 :: 		draw_circle(select, 0);
	MOVLW       4
	MOVWF       R0 
	MOVLW       FARG_draw_circle_circle+0
	MOVWF       FSR1L+0 
	MOVLW       hi_addr(FARG_draw_circle_circle+0)
	MOVWF       FSR1L+1 
	MOVLW       draw_MenuGame_select_L0+0
	MOVWF       FSR0L+0 
	MOVLW       hi_addr(draw_MenuGame_select_L0+0)
	MOVWF       FSR0L+1 
L_draw_MenuGame14:
	MOVF        POSTINC0+0, 0 
	MOVWF       POSTINC1+0 
	DECF        R0, 1 
	BTFSS       STATUS+0, 2 
	GOTO        L_draw_MenuGame14
	CLRF        FARG_draw_circle_color+0 
	CALL        _draw_circle+0, 0
;drawGlcd.c,50 :: 		select.y = select.y + 14;  //offset
	MOVLW       14
	ADDWF       draw_MenuGame_select_L0+1, 0 
	MOVWF       R0 
	MOVF        R0, 0 
	MOVWF       draw_MenuGame_select_L0+1 
;drawGlcd.c,51 :: 		draw_circle(select, 1);
	MOVLW       4
	MOVWF       R0 
	MOVLW       FARG_draw_circle_circle+0
	MOVWF       FSR1L+0 
	MOVLW       hi_addr(FARG_draw_circle_circle+0)
	MOVWF       FSR1L+1 
	MOVLW       draw_MenuGame_select_L0+0
	MOVWF       FSR0L+0 
	MOVLW       hi_addr(draw_MenuGame_select_L0+0)
	MOVWF       FSR0L+1 
L_draw_MenuGame15:
	MOVF        POSTINC0+0, 0 
	MOVWF       POSTINC1+0 
	DECF        R0, 1 
	BTFSS       STATUS+0, 2 
	GOTO        L_draw_MenuGame15
	MOVLW       1
	MOVWF       FARG_draw_circle_color+0 
	CALL        _draw_circle+0, 0
;drawGlcd.c,52 :: 		modeGame = 1;
	MOVLW       1
	MOVWF       FARG_draw_MenuGame_modeGame+0 
;drawGlcd.c,53 :: 		Delay_ms(666);
	MOVLW       7
	MOVWF       R11, 0
	MOVLW       194
	MOVWF       R12, 0
	MOVLW       216
	MOVWF       R13, 0
L_draw_MenuGame16:
	DECFSZ      R13, 1, 1
	BRA         L_draw_MenuGame16
	DECFSZ      R12, 1, 1
	BRA         L_draw_MenuGame16
	DECFSZ      R11, 1, 1
	BRA         L_draw_MenuGame16
	NOP
;drawGlcd.c,54 :: 		continue;
	GOTO        L_draw_MenuGame3
;drawGlcd.c,55 :: 		}
L_draw_MenuGame13:
;drawGlcd.c,56 :: 		if ((key.enter) && (modeGame == 1))
	MOVF        draw_MenuGame_key_L0+2, 1 
	BTFSC       STATUS+0, 2 
	GOTO        L_draw_MenuGame19
	MOVF        FARG_draw_MenuGame_modeGame+0, 0 
	XORLW       1
	BTFSS       STATUS+0, 2 
	GOTO        L_draw_MenuGame19
L__draw_MenuGame30:
;drawGlcd.c,58 :: 		draw_clear();
	CALL        _draw_clear+0, 0
;drawGlcd.c,59 :: 		return 3;
	MOVLW       3
	MOVWF       R0 
	MOVLW       0
	MOVWF       R1 
	GOTO        L_end_draw_MenuGame
;drawGlcd.c,60 :: 		}
L_draw_MenuGame19:
;drawGlcd.c,61 :: 		if ((key.up || key.down ) && (modeGame == 1))
	MOVF        draw_MenuGame_key_L0+0, 1 
	BTFSS       STATUS+0, 2 
	GOTO        L__draw_MenuGame29
	MOVF        draw_MenuGame_key_L0+1, 1 
	BTFSS       STATUS+0, 2 
	GOTO        L__draw_MenuGame29
	GOTO        L_draw_MenuGame24
L__draw_MenuGame29:
	MOVF        FARG_draw_MenuGame_modeGame+0, 0 
	XORLW       1
	BTFSS       STATUS+0, 2 
	GOTO        L_draw_MenuGame24
L__draw_MenuGame28:
;drawGlcd.c,63 :: 		draw_circle(select, 0);
	MOVLW       4
	MOVWF       R0 
	MOVLW       FARG_draw_circle_circle+0
	MOVWF       FSR1L+0 
	MOVLW       hi_addr(FARG_draw_circle_circle+0)
	MOVWF       FSR1L+1 
	MOVLW       draw_MenuGame_select_L0+0
	MOVWF       FSR0L+0 
	MOVLW       hi_addr(draw_MenuGame_select_L0+0)
	MOVWF       FSR0L+1 
L_draw_MenuGame25:
	MOVF        POSTINC0+0, 0 
	MOVWF       POSTINC1+0 
	DECF        R0, 1 
	BTFSS       STATUS+0, 2 
	GOTO        L_draw_MenuGame25
	CLRF        FARG_draw_circle_color+0 
	CALL        _draw_circle+0, 0
;drawGlcd.c,64 :: 		select.y = select.y - 14;  //offset
	MOVLW       14
	SUBWF       draw_MenuGame_select_L0+1, 0 
	MOVWF       R0 
	MOVF        R0, 0 
	MOVWF       draw_MenuGame_select_L0+1 
;drawGlcd.c,65 :: 		draw_circle(select, 1);
	MOVLW       4
	MOVWF       R0 
	MOVLW       FARG_draw_circle_circle+0
	MOVWF       FSR1L+0 
	MOVLW       hi_addr(FARG_draw_circle_circle+0)
	MOVWF       FSR1L+1 
	MOVLW       draw_MenuGame_select_L0+0
	MOVWF       FSR0L+0 
	MOVLW       hi_addr(draw_MenuGame_select_L0+0)
	MOVWF       FSR0L+1 
L_draw_MenuGame26:
	MOVF        POSTINC0+0, 0 
	MOVWF       POSTINC1+0 
	DECF        R0, 1 
	BTFSS       STATUS+0, 2 
	GOTO        L_draw_MenuGame26
	MOVLW       1
	MOVWF       FARG_draw_circle_color+0 
	CALL        _draw_circle+0, 0
;drawGlcd.c,66 :: 		modeGame = 0;
	CLRF        FARG_draw_MenuGame_modeGame+0 
;drawGlcd.c,67 :: 		Delay_ms(666);
	MOVLW       7
	MOVWF       R11, 0
	MOVLW       194
	MOVWF       R12, 0
	MOVLW       216
	MOVWF       R13, 0
L_draw_MenuGame27:
	DECFSZ      R13, 1, 1
	BRA         L_draw_MenuGame27
	DECFSZ      R12, 1, 1
	BRA         L_draw_MenuGame27
	DECFSZ      R11, 1, 1
	BRA         L_draw_MenuGame27
	NOP
;drawGlcd.c,68 :: 		}
L_draw_MenuGame24:
;drawGlcd.c,69 :: 		}
	GOTO        L_draw_MenuGame3
;drawGlcd.c,70 :: 		}
L_end_draw_MenuGame:
	RETURN      0
; end of _draw_MenuGame
